target datalayout = "e-m:e-p270:32:32-p271:32:32-p272:64:64-i64:64-i128:128-f80:128-n8:16:32:64-S128"
target triple = "x86_64-pc-linux-gnu"

; Function Attrs: nounwind uwtable
define internal void @unix_mprotect_hint(i32 noundef %0) #0 {
  %2 = alloca i32, align 4
  store i32 %0, ptr %2, align 4, !tbaa !19
  ret void
}

; Function Attrs: nounwind uwtable
define hidden i32 @_mi_prim_protect(ptr noundef %0, i64 noundef %1, i1 noundef zeroext %2) #0 {
  %4 = alloca ptr, align 8
  %5 = alloca i64, align 8
  %6 = alloca i8, align 1
  %7 = alloca i32, align 4
  store ptr %0, ptr %4, align 8, !tbaa !25
  store i64 %1, ptr %5, align 8, !tbaa !8
  %8 = zext i1 %2 to i8
  store i8 %8, ptr %6, align 1, !tbaa !21
  call void @llvm.lifetime.start.p0(i64 4, ptr %7) #6
  %9 = load ptr, ptr %4, align 8, !tbaa !25
  %10 = load i64, ptr %5, align 8, !tbaa !8
  %11 = load i8, ptr %6, align 1, !tbaa !21, !range !23, !noundef !24
  %12 = trunc i8 %11 to i1
  %13 = select i1 %12, i32 0, i32 3
  %14 = call i32 @mprotect(ptr noundef %9, i64 noundef %10, i32 noundef %13) #7
  store i32 %14, ptr %7, align 4, !tbaa !19
  %15 = load i32, ptr %7, align 4, !tbaa !19
  %16 = icmp ne i32 %15, 0
  br i1 %16, label %17, label %20

17:                                               ; preds = %3
  %18 = call ptr @__errno_location() #9
  %19 = load i32, ptr %18, align 4, !tbaa !19
  store i32 %19, ptr %7, align 4, !tbaa !19
  br label %20

20:                                               ; preds = %17, %3
  %21 = load i32, ptr %7, align 4, !tbaa !19
  call void @unix_mprotect_hint(i32 noundef %21) #8
  %22 = load i32, ptr %7, align 4, !tbaa !19
  call void @llvm.lifetime.end.p0(i64 4, ptr %7) #6
  ret i32 %22
}