; Function Attrs: nounwind uwtable
define hidden i32 @_mi_prim_protect(ptr noundef %0, i64 noundef %1, i1 noundef zeroext %2) local_unnamed_addr #0 {
  %4 = select i1 %2, i32 0, i32 3
  %5 = tail call i32 @mprotect(ptr noundef %0, i64 noundef %1, i32 noundef %4) #10
  %.not = icmp eq i32 %5, 0
  br i1 %.not, label %9, label %6

6:                                                ; preds = %3
  %7 = tail call ptr @__errno_location() #12
  %8 = load i32, ptr %7, align 4, !tbaa !15
  br label %9

9:                                                ; preds = %6, %3
  %.0 = phi i32 [ %8, %6 ], [ 0, %3 ]
  ret i32 %.0
}